; Function Attrs: nounwind uwtable
define dso_local i64 @range_gist_union(ptr noundef %0) local_unnamed_addr #0 {
  %2 = getelementptr inbounds nuw i8, ptr %0, i64 32
  %3 = load i64, ptr %2, align 8
  %4 = inttoptr i64 %3 to ptr
  %5 = getelementptr inbounds nuw i8, ptr %4, i64 8
  %6 = load i64, ptr %5, align 8
  %7 = inttoptr i64 %6 to ptr
  %8 = tail call ptr @pg_detoast_datum(ptr noundef %7) #10
  %9 = getelementptr inbounds nuw i8, ptr %8, i64 4
  %10 = load i32, ptr %9, align 4
  %11 = tail call ptr @range_get_typcache(ptr noundef %0, i32 noundef %10) #10
  %12 = load i32, ptr %4, align 8
  %13 = icmp sgt i32 %12, 1
  br i1 %13, label %.lr.ph, label %._crit_edge

.lr.ph:                                           ; preds = %1, %.lr.ph
  %indvars.iv = phi i64 [ %indvars.iv.next, %.lr.ph ], [ 1, %1 ]
  %.01213 = phi ptr [ %18, %.lr.ph ], [ %8, %1 ]
  %14 = getelementptr inbounds nuw %struct.GISTENTRY, ptr %5, i64 %indvars.iv
  %15 = load i64, ptr %14, align 8
  %16 = inttoptr i64 %15 to ptr
  %17 = tail call ptr @pg_detoast_datum(ptr noundef %16) #10
  %18 = tail call fastcc ptr @range_super_union(ptr noundef %11, ptr noundef %.01213, ptr noundef %17)
  %indvars.iv.next = add nuw nsw i64 %indvars.iv, 1
  %19 = load i32, ptr %4, align 8
  %20 = sext i32 %19 to i64
  %21 = icmp slt i64 %indvars.iv.next, %20
  br i1 %21, label %.lr.ph, label %._crit_edge, !llvm.loop !6

._crit_edge:                                      ; preds = %.lr.ph, %1
  %.012.lcssa = phi ptr [ %8, %1 ], [ %18, %.lr.ph ]
  %22 = ptrtoint ptr %.012.lcssa to i64
  ret i64 %22
}